; Function Attrs: nounwind uwtable
define zeroext range(i8 0, 2) i8 @l_Array_anyMUnsafe_any___at___private_Lean_Elab_Inductive_0__Lean_Elab_Command_elabCtors___spec__1(ptr noundef %0, ptr noundef readonly captures(none) %1, i64 noundef %2, i64 noundef %3) local_unnamed_addr #0 {
  %.not48 = icmp eq i64 %2, %3
  br i1 %.not48, label %lean_dec.exit._crit_edge, label %.lr.ph

.lr.ph:                                           ; preds = %4
  %5 = getelementptr inbounds nuw i8, ptr %1, i64 24
  br label %6

6:                                                ; preds = %.lr.ph, %lean_dec.exit31
  %.02349 = phi i64 [ %2, %.lr.ph ], [ %.326, %lean_dec.exit31 ]
  %7 = getelementptr inbounds nuw [0 x ptr], ptr %5, i64 0, i64 %.02349
  %8 = load ptr, ptr %7, align 8, !tbaa !10
  %9 = ptrtoint ptr %8 to i64
  %10 = and i64 %9, 1
  %.not.i36 = icmp eq i64 %10, 0
  br i1 %.not.i36, label %11, label %lean_array_uget.exit.thread

11:                                               ; preds = %6
  %.val.i.i = load i32, ptr %8, align 4, !tbaa !4
  %12 = icmp sgt i32 %.val.i.i, 0
  br i1 %12, label %13, label %15, !prof !9

13:                                               ; preds = %11
  %14 = add nuw i32 %.val.i.i, 1
  store i32 %14, ptr %8, align 4, !tbaa !4
  br label %lean_array_uget.exit

15:                                               ; preds = %11
  %.not.i.i = icmp eq i32 %.val.i.i, 0
  br i1 %.not.i.i, label %lean_array_uget.exit, label %16

16:                                               ; preds = %15
  tail call void @lean_inc_ref_cold(ptr noundef nonnull %8) #6
  br label %lean_array_uget.exit

lean_array_uget.exit:                             ; preds = %13, %15, %16
  %17 = tail call zeroext i8 @l_Lean_Expr_isMVar(ptr noundef nonnull %8) #6
  %18 = icmp eq i8 %17, 0
  br i1 %18, label %22, label %29

lean_array_uget.exit.thread:                      ; preds = %6
  %19 = tail call zeroext i8 @l_Lean_Expr_isMVar(ptr noundef %8) #6
  %20 = icmp eq i8 %19, 0
  br i1 %20, label %lean_dec.exit31, label %.thread37

.thread37:                                        ; preds = %lean_array_uget.exit.thread
  %21 = tail call ptr @l_Lean_Expr_mvarId_x21(ptr noundef %8) #6
  br label %lean_dec.exit30

22:                                               ; preds = %lean_array_uget.exit
  %23 = load i32, ptr %8, align 4, !tbaa !4
  %24 = icmp sgt i32 %23, 1
  br i1 %24, label %25, label %27, !prof !9

25:                                               ; preds = %22
  %26 = add nsw i32 %23, -1
  store i32 %26, ptr %8, align 4, !tbaa !4
  br label %lean_dec.exit31

27:                                               ; preds = %22
  %.not.i = icmp eq i32 %23, 0
  br i1 %.not.i, label %lean_dec.exit31, label %28

28:                                               ; preds = %27
  tail call void @lean_dec_ref_cold(ptr noundef nonnull %8) #6
  br label %lean_dec.exit31

29:                                               ; preds = %lean_array_uget.exit
  %30 = tail call ptr @l_Lean_Expr_mvarId_x21(ptr noundef nonnull %8) #6
  %31 = load i32, ptr %8, align 4, !tbaa !4
  %32 = icmp sgt i32 %31, 1
  br i1 %32, label %33, label %35, !prof !9

33:                                               ; preds = %29
  %34 = add nsw i32 %31, -1
  store i32 %34, ptr %8, align 4, !tbaa !4
  br label %lean_dec.exit30

35:                                               ; preds = %29
  %.not.i32 = icmp eq i32 %31, 0
  br i1 %.not.i32, label %lean_dec.exit30, label %36

36:                                               ; preds = %35
  tail call void @lean_dec_ref_cold(ptr noundef nonnull %8) #6
  br label %lean_dec.exit30

lean_dec.exit30:                                  ; preds = %36, %35, %33, %.thread37
  %37 = phi ptr [ %21, %.thread37 ], [ %30, %33 ], [ %30, %35 ], [ %30, %36 ]
  %38 = tail call zeroext i8 @lean_name_eq(ptr noundef %37, ptr noundef %0) #6
  %39 = ptrtoint ptr %37 to i64
  %40 = and i64 %39, 1
  %.not46 = icmp eq i64 %40, 0
  br i1 %.not46, label %41, label %lean_dec.exit

41:                                               ; preds = %lean_dec.exit30
  %42 = load i32, ptr %37, align 4, !tbaa !4
  %43 = icmp sgt i32 %42, 1
  br i1 %43, label %44, label %46, !prof !9

44:                                               ; preds = %41
  %45 = add nsw i32 %42, -1
  store i32 %45, ptr %37, align 4, !tbaa !4
  br label %lean_dec.exit

46:                                               ; preds = %41
  %.not.i34 = icmp eq i32 %42, 0
  br i1 %.not.i34, label %lean_dec.exit, label %47

47:                                               ; preds = %46
  tail call void @lean_dec_ref_cold(ptr noundef nonnull %37) #6
  br label %lean_dec.exit

lean_dec.exit:                                    ; preds = %47, %46, %44, %lean_dec.exit30
  %48 = icmp eq i8 %38, 0
  br i1 %48, label %lean_dec.exit31, label %lean_dec.exit._crit_edge

lean_dec.exit31:                                  ; preds = %lean_dec.exit, %25, %27, %28, %lean_array_uget.exit.thread
  %.326 = add i64 %.02349, 1
  %.not = icmp eq i64 %.326, %3
  br i1 %.not, label %lean_dec.exit._crit_edge, label %6

lean_dec.exit._crit_edge:                         ; preds = %lean_dec.exit31, %lean_dec.exit, %4
  %.3.ph = phi i8 [ 0, %4 ], [ 1, %lean_dec.exit ], [ 0, %lean_dec.exit31 ]
  ret i8 %.3.ph
}